target datalayout = "e-m:e-p270:32:32-p271:32:32-p272:64:64-i64:64-i128:128-f80:128-n8:16:32:64-S128"
target triple = "x86_64-pc-linux-gnu"

%struct.facstruct = type { ptr, i32 }

; Function Attrs: nounwind uwtable
define i32 @logg_facility(ptr noundef %0) #0 {
  %2 = alloca i32, align 4
  %3 = alloca ptr, align 8
  %4 = alloca i32, align 4
  %5 = alloca i32, align 4
  store ptr %0, ptr %3, align 8, !tbaa !7
  call void @llvm.lifetime.start.p0(i64 4, ptr %4) #10
  store i32 0, ptr %4, align 4, !tbaa !3
  br label %6

6:                                                ; preds = %29, %1
  %7 = load i32, ptr %4, align 4, !tbaa !3
  %8 = sext i32 %7 to i64
  %9 = getelementptr inbounds [22 x %struct.facstruct], ptr @facilitymap, i64 0, i64 %8
  %10 = getelementptr inbounds nuw %struct.facstruct, ptr %9, i32 0, i32 0
  %11 = load ptr, ptr %10, align 16, !tbaa !26
  %12 = icmp ne ptr %11, null
  br i1 %12, label %13, label %32

13:                                               ; preds = %6
  %14 = load i32, ptr %4, align 4, !tbaa !3
  %15 = sext i32 %14 to i64
  %16 = getelementptr inbounds [22 x %struct.facstruct], ptr @facilitymap, i64 0, i64 %15
  %17 = getelementptr inbounds nuw %struct.facstruct, ptr %16, i32 0, i32 0
  %18 = load ptr, ptr %17, align 16, !tbaa !26
  %19 = load ptr, ptr %3, align 8, !tbaa !7
  %20 = call i32 @strcmp(ptr noundef %18, ptr noundef %19) #11
  %21 = icmp ne i32 %20, 0
  br i1 %21, label %28, label %22

22:                                               ; preds = %13
  %23 = load i32, ptr %4, align 4, !tbaa !3
  %24 = sext i32 %23 to i64
  %25 = getelementptr inbounds [22 x %struct.facstruct], ptr @facilitymap, i64 0, i64 %24
  %26 = getelementptr inbounds nuw %struct.facstruct, ptr %25, i32 0, i32 1
  %27 = load i32, ptr %26, align 8, !tbaa !28
  store i32 %27, ptr %2, align 4
  store i32 1, ptr %5, align 4
  br label %33

28:                                               ; preds = %13
  br label %29

29:                                               ; preds = %28
  %30 = load i32, ptr %4, align 4, !tbaa !3
  %31 = add nsw i32 %30, 1
  store i32 %31, ptr %4, align 4, !tbaa !3
  br label %6

32:                                               ; preds = %6
  store i32 -1, ptr %2, align 4
  store i32 1, ptr %5, align 4
  br label %33

33:                                               ; preds = %32, %22
  call void @llvm.lifetime.end.p0(i64 4, ptr %4) #10
  %34 = load i32, ptr %2, align 4
  ret i32 %34
}