; Function Attrs: nofree nounwind memory(read, inaccessiblemem: none) uwtable
define i32 @logg_facility(ptr noundef readonly captures(none) %0) local_unnamed_addr #12 {
  %2 = tail call i32 @strcmp(ptr noundef nonnull dereferenceable(9) @.str.15, ptr noundef nonnull dereferenceable(1) %0) #17
  %.not714 = icmp eq i32 %2, 0
  br i1 %.not714, label %._crit_edge, label %.lr.ph

.lr.ph:                                           ; preds = %1, %3
  %indvars.iv15 = phi i64 [ %indvars.iv.next, %3 ], [ 0, %1 ]
  %indvars.iv.next = add nuw nsw i64 %indvars.iv15, 1
  %exitcond = icmp eq i64 %indvars.iv.next, 21
  br i1 %exitcond, label %.loopexit, label %3

3:                                                ; preds = %.lr.ph
  %4 = getelementptr inbounds nuw [22 x %struct.facstruct], ptr @facilitymap, i64 0, i64 %indvars.iv.next
  %5 = load ptr, ptr %4, align 16, !tbaa !25
  %6 = tail call i32 @strcmp(ptr noundef nonnull dereferenceable(1) %5, ptr noundef nonnull dereferenceable(1) %0) #17
  %.not7 = icmp eq i32 %6, 0
  br i1 %.not7, label %._crit_edge, label %.lr.ph

._crit_edge:                                      ; preds = %3, %1
  %.lcssa = phi ptr [ @facilitymap, %1 ], [ %4, %3 ]
  %7 = getelementptr inbounds nuw i8, ptr %.lcssa, i64 8
  %8 = load i32, ptr %7, align 8, !tbaa !27
  br label %.loopexit

.loopexit:                                        ; preds = %.lr.ph, %._crit_edge
  %.05 = phi i32 [ %8, %._crit_edge ], [ -1, %.lr.ph ]
  ret i32 %.05
}